
test.elf:     file format elf32-littleriscv


Disassembly of section .text:

00000000 <_start>:
   0:	104000ef          	jal	104 <main>
   4:	9002                	ebreak

00000006 <print_s>:
   6:	7179                	addi	sp,sp,-48
   8:	d606                	sw	ra,44(sp)
   a:	d422                	sw	s0,40(sp)
   c:	1800                	addi	s0,sp,48
   e:	fca42e23          	sw	a0,-36(s0)
  12:	fcb42c23          	sw	a1,-40(s0)
  16:	fe042623          	sw	zero,-20(s0)
  1a:	a035                	j	46 <print_s+0x40>
  1c:	fec42783          	lw	a5,-20(s0)
  20:	fdc42703          	lw	a4,-36(s0)
  24:	97ba                	add	a5,a5,a4
  26:	0007c783          	lbu	a5,0(a5)
  2a:	fef405a3          	sb	a5,-21(s0)
  2e:	feb44783          	lbu	a5,-21(s0)
  32:	0ff7f713          	zext.b	a4,a5
  36:	57fd                	li	a5,-1
  38:	00e78023          	sb	a4,0(a5)
  3c:	fec42783          	lw	a5,-20(s0)
  40:	0785                	addi	a5,a5,1
  42:	fef42623          	sw	a5,-20(s0)
  46:	fec42703          	lw	a4,-20(s0)
  4a:	fd842783          	lw	a5,-40(s0)
  4e:	fcf747e3          	blt	a4,a5,1c <print_s+0x16>
  52:	0001                	nop
  54:	0001                	nop
  56:	50b2                	lw	ra,44(sp)
  58:	5422                	lw	s0,40(sp)
  5a:	6145                	addi	sp,sp,48
  5c:	8082                	ret

0000005e <print_d>:
  5e:	1101                	addi	sp,sp,-32
  60:	ce06                	sw	ra,28(sp)
  62:	cc22                	sw	s0,24(sp)
  64:	1000                	addi	s0,sp,32
  66:	fea42623          	sw	a0,-20(s0)
  6a:	57fd                	li	a5,-1
  6c:	fec42703          	lw	a4,-20(s0)
  70:	c398                	sw	a4,0(a5)
  72:	0001                	nop
  74:	40f2                	lw	ra,28(sp)
  76:	4462                	lw	s0,24(sp)
  78:	6105                	addi	sp,sp,32
  7a:	8082                	ret

0000007c <print_matrix>:
  7c:	7179                	addi	sp,sp,-48
  7e:	d606                	sw	ra,44(sp)
  80:	d422                	sw	s0,40(sp)
  82:	1800                	addi	s0,sp,48
  84:	fca42e23          	sw	a0,-36(s0)
  88:	fe042623          	sw	zero,-20(s0)
  8c:	a08d                	j	ee <print_matrix+0x72>
  8e:	fe042423          	sw	zero,-24(s0)
  92:	a081                	j	d2 <print_matrix+0x56>
  94:	fec42703          	lw	a4,-20(s0)
  98:	87ba                	mv	a5,a4
  9a:	0786                	slli	a5,a5,0x1
  9c:	97ba                	add	a5,a5,a4
  9e:	078a                	slli	a5,a5,0x2
  a0:	873e                	mv	a4,a5
  a2:	fdc42783          	lw	a5,-36(s0)
  a6:	973e                	add	a4,a4,a5
  a8:	fe842783          	lw	a5,-24(s0)
  ac:	078a                	slli	a5,a5,0x2
  ae:	97ba                	add	a5,a5,a4
  b0:	439c                	lw	a5,0(a5)
  b2:	853e                	mv	a0,a5
  b4:	376d                	jal	5e <print_d>
  b6:	fe842703          	lw	a4,-24(s0)
  ba:	4785                	li	a5,1
  bc:	00e7c663          	blt	a5,a4,c8 <print_matrix+0x4c>
  c0:	4589                	li	a1,2
  c2:	16000513          	li	a0,352
  c6:	3781                	jal	6 <print_s>
  c8:	fe842783          	lw	a5,-24(s0)
  cc:	0785                	addi	a5,a5,1
  ce:	fef42423          	sw	a5,-24(s0)
  d2:	fe842703          	lw	a4,-24(s0)
  d6:	4789                	li	a5,2
  d8:	fae7dee3          	bge	a5,a4,94 <print_matrix+0x18>
  dc:	4585                	li	a1,1
  de:	16400513          	li	a0,356
  e2:	3715                	jal	6 <print_s>
  e4:	fec42783          	lw	a5,-20(s0)
  e8:	0785                	addi	a5,a5,1
  ea:	fef42623          	sw	a5,-20(s0)
  ee:	fec42703          	lw	a4,-20(s0)
  f2:	4789                	li	a5,2
  f4:	f8e7dde3          	bge	a5,a4,8e <print_matrix+0x12>
  f8:	0001                	nop
  fa:	0001                	nop
  fc:	50b2                	lw	ra,44(sp)
  fe:	5422                	lw	s0,40(sp)
 100:	6145                	addi	sp,sp,48
 102:	8082                	ret

00000104 <main>:
 104:	7139                	addi	sp,sp,-64
 106:	de06                	sw	ra,60(sp)
 108:	dc22                	sw	s0,56(sp)
 10a:	0080                	addi	s0,sp,64
 10c:	16800793          	li	a5,360
 110:	0007a303          	lw	t1,0(a5)
 114:	0047a883          	lw	a7,4(a5)
 118:	0087a803          	lw	a6,8(a5)
 11c:	47c8                	lw	a0,12(a5)
 11e:	4b8c                	lw	a1,16(a5)
 120:	4bd0                	lw	a2,20(a5)
 122:	4f94                	lw	a3,24(a5)
 124:	4fd8                	lw	a4,28(a5)
 126:	539c                	lw	a5,32(a5)
 128:	fc642623          	sw	t1,-52(s0)
 12c:	fd142823          	sw	a7,-48(s0)
 130:	fd042a23          	sw	a6,-44(s0)
 134:	fca42c23          	sw	a0,-40(s0)
 138:	fcb42e23          	sw	a1,-36(s0)
 13c:	fec42023          	sw	a2,-32(s0)
 140:	fed42223          	sw	a3,-28(s0)
 144:	fee42423          	sw	a4,-24(s0)
 148:	fef42623          	sw	a5,-20(s0)
 14c:	fcc40793          	addi	a5,s0,-52
 150:	853e                	mv	a0,a5
 152:	372d                	jal	7c <print_matrix>
 154:	4781                	li	a5,0
 156:	853e                	mv	a0,a5
 158:	50f2                	lw	ra,60(sp)
 15a:	5462                	lw	s0,56(sp)
 15c:	6121                	addi	sp,sp,64
 15e:	8082                	ret
